; ModuleID = 'source-C-CXX/59/486.c'
source_filename = "source-C-CXX/59/486.c"
target datalayout = "e-m:e-p270:32:32-p271:32:32-p272:64:64-i64:64-f80:128-n8:16:32:64-S128"
target triple = "x86_64-pc-linux-gnu"

@.str = private unnamed_addr constant [3 x i8] c"%d\00", align 1
@.str.1 = private unnamed_addr constant [7 x i8] c"%d %d\0A\00", align 1
@str = private unnamed_addr constant [6 x i8] c"empty\00", align 1

; Function Attrs: nofree nounwind sspstrong uwtable
define dso_local void @main() local_unnamed_addr #0 {
  %1 = alloca i32, align 4
  %2 = bitcast i32* %1 to i8*
  call void @llvm.lifetime.start.p0i8(i64 4, i8* nonnull %2) #5
  %3 = call i32 (i8*, ...) @__isoc99_scanf(i8* getelementptr inbounds ([3 x i8], [3 x i8]* @.str, i64 0, i64 0), i32* nonnull %1)
  %4 = load i32, i32* %1, align 4, !tbaa !5
  %5 = icmp slt i32 %4, 5
  br i1 %5, label %38, label %6

6:                                                ; preds = %0, %30
  %7 = phi i32 [ %31, %30 ], [ %4, %0 ]
  %8 = phi i32 [ %33, %30 ], [ 3, %0 ]
  %9 = phi i32 [ %32, %30 ], [ 0, %0 ]
  br label %12

10:                                               ; preds = %12
  %11 = icmp eq i32 %16, %8
  br i1 %11, label %17, label %12, !llvm.loop !9

12:                                               ; preds = %6, %10
  %13 = phi i32 [ %16, %10 ], [ 2, %6 ]
  %14 = urem i32 %8, %13
  %15 = icmp eq i32 %14, 0
  %16 = add nuw nsw i32 %13, 1
  br i1 %15, label %30, label %10

17:                                               ; preds = %10
  %18 = add nuw nsw i32 %8, 2
  br label %21

19:                                               ; preds = %21
  %20 = icmp eq i32 %25, %18
  br i1 %20, label %26, label %21, !llvm.loop !9

21:                                               ; preds = %19, %17
  %22 = phi i32 [ %25, %19 ], [ 2, %17 ]
  %23 = urem i32 %18, %22
  %24 = icmp eq i32 %23, 0
  %25 = add nuw nsw i32 %22, 1
  br i1 %24, label %30, label %19

26:                                               ; preds = %19
  %27 = call i32 (i8*, ...) @printf(i8* nonnull dereferenceable(1) getelementptr inbounds ([7 x i8], [7 x i8]* @.str.1, i64 0, i64 0), i32 %8, i32 %18)
  %28 = add nsw i32 %9, 1
  %29 = load i32, i32* %1, align 4, !tbaa !5
  br label %30

30:                                               ; preds = %12, %21, %26
  %31 = phi i32 [ %29, %26 ], [ %7, %21 ], [ %7, %12 ]
  %32 = phi i32 [ %28, %26 ], [ %9, %21 ], [ %9, %12 ]
  %33 = add nuw nsw i32 %8, 1
  %34 = add nsw i32 %31, -2
  %35 = icmp slt i32 %8, %34
  br i1 %35, label %6, label %36, !llvm.loop !11

36:                                               ; preds = %30
  %37 = icmp eq i32 %32, 0
  br i1 %37, label %38, label %40

38:                                               ; preds = %0, %36
  %39 = call i32 @puts(i8* nonnull dereferenceable(1) getelementptr inbounds ([6 x i8], [6 x i8]* @str, i64 0, i64 0))
  br label %40

40:                                               ; preds = %38, %36
  call void @llvm.lifetime.end.p0i8(i64 4, i8* nonnull %2) #5
  ret void
}

; Function Attrs: argmemonly mustprogress nofree nosync nounwind willreturn
declare void @llvm.lifetime.start.p0i8(i64 immarg, i8* nocapture) #1

; Function Attrs: nofree nounwind
declare noundef i32 @__isoc99_scanf(i8* nocapture noundef readonly, ...) local_unnamed_addr #2

; Function Attrs: nofree norecurse nosync nounwind readnone sspstrong uwtable
define dso_local i32 @isPrime(i32 %0) local_unnamed_addr #3 {
  %2 = icmp sgt i32 %0, 2
  br i1 %2, label %5, label %10

3:                                                ; preds = %5
  %4 = icmp eq i32 %9, %0
  br i1 %4, label %10, label %5, !llvm.loop !9

5:                                                ; preds = %1, %3
  %6 = phi i32 [ %9, %3 ], [ 2, %1 ]
  %7 = srem i32 %0, %6
  %8 = icmp eq i32 %7, 0
  %9 = add nuw nsw i32 %6, 1
  br i1 %8, label %10, label %3

10:                                               ; preds = %5, %3, %1
  %11 = phi i32 [ %0, %1 ], [ %0, %3 ], [ 0, %5 ]
  ret i32 %11
}

; Function Attrs: nofree nounwind
declare noundef i32 @printf(i8* nocapture noundef readonly, ...) local_unnamed_addr #2

; Function Attrs: argmemonly mustprogress nofree nosync nounwind willreturn
declare void @llvm.lifetime.end.p0i8(i64 immarg, i8* nocapture) #1

; Function Attrs: nofree nounwind
declare noundef i32 @puts(i8* nocapture noundef readonly) local_unnamed_addr #4


!llvm.module.flags = !{!0, !1, !2, !3}
!llvm.ident = !{!4}

!0 = !{i32 1, !"wchar_size", i32 4}
!1 = !{i32 7, !"PIC Level", i32 2}
!2 = !{i32 7, !"PIE Level", i32 2}
!3 = !{i32 7, !"uwtable", i32 1}
!4 = !{!"clang version 13.0.0"}
!5 = !{!6, !6, i64 0}
!6 = !{!"int", !7, i64 0}
!7 = !{!"omnipotent char", !8, i64 0}
!8 = !{!"Simple C/C++ TBAA"}
!9 = distinct !{!9, !10}
!10 = !{!"llvm.loop.mustprogress"}
!11 = distinct !{!11, !10}
